target datalayout = "e-m:e-p270:32:32-p271:32:32-p272:64:64-i64:64-i128:128-f80:128-n8:16:32:64-S128"
target triple = "x86_64-pc-linux-gnu"

%struct.pmix_output_desc_t = type { i8, i8, i32, i8, i32, ptr, ptr, i32, ptr, i32, i8, i8, i8, i8, ptr, i32, i32 }
%struct.pmix_mca_base_component_2_1_0_t = type { i32, i32, i32, [16 x i8], i32, i32, i32, [32 x i8], i32, i32, i32, [64 x i8], i32, i32, i32, ptr, ptr, ptr, ptr, [32 x i8] }

@pmix_output_info = external global [0 x %struct.pmix_output_desc_t], align 8
@.str = private unnamed_addr constant [41 x i8] c"mca: base: close: unloading component %s\00", align 1

; Function Attrs: nounwind uwtable
define void @pmix_mca_base_component_unload(ptr noundef %0, i32 noundef %1) #0 {
  %3 = alloca ptr, align 8
  %4 = alloca i32, align 4
  %5 = alloca i32, align 4
  store ptr %0, ptr %3, align 8, !tbaa !3
  store i32 %1, ptr %4, align 4, !tbaa !8
  call void @llvm.lifetime.start.p0(i64 4, ptr %5) #8
  %6 = load i32, ptr %4, align 4, !tbaa !8
  %7 = icmp sge i32 %6, 0
  br i1 %7, label %8, label %23

8:                                                ; preds = %2
  %9 = load i32, ptr %4, align 4, !tbaa !8
  %10 = icmp slt i32 %9, 64
  br i1 %10, label %11, label %23

11:                                               ; preds = %8
  %12 = load i32, ptr %4, align 4, !tbaa !8
  %13 = sext i32 %12 to i64
  %14 = getelementptr inbounds [0 x %struct.pmix_output_desc_t], ptr @pmix_output_info, i64 0, i64 %13
  %15 = getelementptr inbounds nuw %struct.pmix_output_desc_t, ptr %14, i32 0, i32 2
  %16 = load i32, ptr %15, align 4, !tbaa !10
  %17 = icmp sge i32 %16, 10
  br i1 %17, label %18, label %23

18:                                               ; preds = %11
  %19 = load i32, ptr %4, align 4, !tbaa !8
  %20 = load ptr, ptr %3, align 8, !tbaa !3
  %21 = getelementptr inbounds nuw %struct.pmix_mca_base_component_2_1_0_t, ptr %20, i32 0, i32 11
  %22 = getelementptr inbounds [64 x i8], ptr %21, i64 0, i64 0
  call void (i32, ptr, ...) @pmix_output(i32 noundef %19, ptr noundef @.str, ptr noundef %22)
  br label %23

23:                                               ; preds = %18, %11, %8, %2
  %24 = load ptr, ptr %3, align 8, !tbaa !3
  %25 = getelementptr inbounds nuw %struct.pmix_mca_base_component_2_1_0_t, ptr %24, i32 0, i32 3
  %26 = getelementptr inbounds [16 x i8], ptr %25, i64 0, i64 0
  %27 = load ptr, ptr %3, align 8, !tbaa !3
  %28 = getelementptr inbounds nuw %struct.pmix_mca_base_component_2_1_0_t, ptr %27, i32 0, i32 7
  %29 = getelementptr inbounds [32 x i8], ptr %28, i64 0, i64 0
  %30 = load ptr, ptr %3, align 8, !tbaa !3
  %31 = getelementptr inbounds nuw %struct.pmix_mca_base_component_2_1_0_t, ptr %30, i32 0, i32 11
  %32 = getelementptr inbounds [64 x i8], ptr %31, i64 0, i64 0
  %33 = call i32 @pmix_mca_base_var_group_find(ptr noundef %26, ptr noundef %29, ptr noundef %32)
  store i32 %33, ptr %5, align 4, !tbaa !8
  %34 = load i32, ptr %5, align 4, !tbaa !8
  %35 = icmp sle i32 0, %34
  br i1 %35, label %36, label %39

36:                                               ; preds = %23
  %37 = load i32, ptr %5, align 4, !tbaa !8
  %38 = call i32 @pmix_mca_base_var_group_deregister(i32 noundef %37)
  br label %39

39:                                               ; preds = %36, %23
  %40 = load ptr, ptr %3, align 8, !tbaa !3
  call void @pmix_mca_base_component_repository_release(ptr noundef %40)
  call void @llvm.lifetime.end.p0(i64 4, ptr %5) #8
  ret void
}