; Function Attrs: nounwind uwtable
define void @pmix_mca_base_component_unload(ptr noundef %0, i32 noundef %1) local_unnamed_addr #0 {
  %or.cond = icmp ult i32 %1, 64
  br i1 %or.cond, label %3, label %10

3:                                                ; preds = %2
  %4 = zext nneg i32 %1 to i64
  %5 = getelementptr inbounds nuw [0 x %struct.pmix_output_desc_t], ptr @pmix_output_info, i64 0, i64 %4, i32 2
  %6 = load i32, ptr %5, align 4, !tbaa !3
  %7 = icmp sgt i32 %6, 9
  br i1 %7, label %8, label %10

8:                                                ; preds = %3
  %9 = getelementptr inbounds nuw i8, ptr %0, i64 84
  tail call void (i32, ptr, ...) @pmix_output(i32 noundef %1, ptr noundef nonnull @.str, ptr noundef nonnull %9) #7
  br label %10

10:                                               ; preds = %8, %3, %2
  %11 = getelementptr inbounds nuw i8, ptr %0, i64 12
  %12 = getelementptr inbounds nuw i8, ptr %0, i64 40
  %13 = getelementptr inbounds nuw i8, ptr %0, i64 84
  %14 = tail call i32 @pmix_mca_base_var_group_find(ptr noundef nonnull %11, ptr noundef nonnull %12, ptr noundef nonnull %13) #7
  %15 = icmp sgt i32 %14, -1
  br i1 %15, label %16, label %18

16:                                               ; preds = %10
  %17 = tail call i32 @pmix_mca_base_var_group_deregister(i32 noundef %14) #7
  br label %18

18:                                               ; preds = %16, %10
  tail call void @pmix_mca_base_component_repository_release(ptr noundef nonnull %0) #7
  ret void
}